; Function Attrs: mustprogress uwtable
define hidden void @_ZN7Decolor10add_vectorERSt6vectorIN2cv3VecIiLi3EEESaIS3_EERiiii(ptr noundef nonnull align 8 dereferenceable(24) %0, ptr noundef nonnull align 4 captures(none) dereferenceable(4) %1, i32 noundef %2, i32 noundef %3, i32 noundef %4) local_unnamed_addr #0 align 2 {
  %6 = alloca %"class.cv::Vec", align 4
  call void @llvm.lifetime.start.p0(i64 12, ptr nonnull %6) #23
  store i32 %2, ptr %6, align 4, !tbaa !31
  %7 = getelementptr inbounds nuw i8, ptr %6, i64 4
  store i32 %3, ptr %7, align 4, !tbaa !31
  %8 = getelementptr inbounds nuw i8, ptr %6, i64 8
  store i32 %4, ptr %8, align 4, !tbaa !31
  %9 = getelementptr inbounds nuw i8, ptr %0, i64 8
  %10 = load ptr, ptr %9, align 8, !tbaa !40
  %11 = getelementptr inbounds nuw i8, ptr %0, i64 16
  %12 = load ptr, ptr %11, align 8, !tbaa !91
  %.not.i.i = icmp eq ptr %10, %12
  br i1 %.not.i.i, label %17, label %.preheader.i.i

.preheader.i.i:                                   ; preds = %5, %.preheader.i.i
  %indvars.iv.i.i.i.i.i.i = phi i64 [ %indvars.iv.next.i.i.i.i.i.i, %.preheader.i.i ], [ 0, %5 ]
  %13 = getelementptr inbounds nuw i32, ptr %6, i64 %indvars.iv.i.i.i.i.i.i
  %14 = load i32, ptr %13, align 4, !tbaa !31
  %15 = getelementptr inbounds nuw [3 x i32], ptr %10, i64 0, i64 %indvars.iv.i.i.i.i.i.i
  store i32 %14, ptr %15, align 4, !tbaa !31
  %indvars.iv.next.i.i.i.i.i.i = add nuw nsw i64 %indvars.iv.i.i.i.i.i.i, 1
  %exitcond.not.i.i.i.i.i.i = icmp eq i64 %indvars.iv.next.i.i.i.i.i.i, 3
  br i1 %exitcond.not.i.i.i.i.i.i, label %_ZNSt16allocator_traitsISaIN2cv3VecIiLi3EEEEE9constructIS2_JS2_EEEvRS3_PT_DpOT0_.exit.i.i, label %.preheader.i.i, !llvm.loop !92

_ZNSt16allocator_traitsISaIN2cv3VecIiLi3EEEEE9constructIS2_JS2_EEEvRS3_PT_DpOT0_.exit.i.i: ; preds = %.preheader.i.i
  %16 = getelementptr inbounds nuw i8, ptr %10, i64 12
  store ptr %16, ptr %9, align 8, !tbaa !40
  br label %_ZNSt6vectorIN2cv3VecIiLi3EEESaIS2_EE9push_backEOS2_.exit

17:                                               ; preds = %5
  call void @_ZNSt6vectorIN2cv3VecIiLi3EEESaIS2_EE17_M_realloc_insertIJS2_EEEvN9__gnu_cxx17__normal_iteratorIPS2_S4_EEDpOT_(ptr noundef nonnull align 8 dereferenceable(24) %0, ptr %10, ptr noundef nonnull align 4 dereferenceable(12) %6)
  br label %_ZNSt6vectorIN2cv3VecIiLi3EEESaIS2_EE9push_backEOS2_.exit

_ZNSt6vectorIN2cv3VecIiLi3EEESaIS2_EE9push_backEOS2_.exit: ; preds = %_ZNSt16allocator_traitsISaIN2cv3VecIiLi3EEEEE9constructIS2_JS2_EEEvRS3_PT_DpOT0_.exit.i.i, %17
  call void @llvm.lifetime.end.p0(i64 12, ptr nonnull %6) #23
  %18 = load i32, ptr %1, align 4, !tbaa !31
  %19 = add nsw i32 %18, 1
  store i32 %19, ptr %1, align 4, !tbaa !31
  ret void
}